target datalayout = "e-m:e-p270:32:32-p271:32:32-p272:64:64-i64:64-i128:128-f80:128-n8:16:32:64-S128"
target triple = "x86_64-pc-linux-gnu"

%struct.strbuf = type { i64, i64, ptr }

@__const.fn_command_name_fl.buf_payload = private unnamed_addr constant %struct.strbuf { i64 0, i64 0, ptr @strbuf_slopbuf }, align 8
@.str.14 = private unnamed_addr constant [12 x i8] c"cmd_name %s\00", align 1
@.str.15 = private unnamed_addr constant [6 x i8] c" (%s)\00", align 1

; Function Attrs: nounwind uwtable
define internal void @fn_command_name_fl(ptr noundef %0, i32 noundef %1, ptr noundef %2, ptr noundef %3) #0 {
  %5 = alloca ptr, align 8
  %6 = alloca i32, align 4
  %7 = alloca ptr, align 8
  %8 = alloca ptr, align 8
  %9 = alloca %struct.strbuf, align 8
  store ptr %0, ptr %5, align 8, !tbaa !8
  store i32 %1, ptr %6, align 4, !tbaa !4
  store ptr %2, ptr %7, align 8, !tbaa !8
  store ptr %3, ptr %8, align 8, !tbaa !8
  call void @llvm.lifetime.start.p0(i64 24, ptr %9) #9
  call void @llvm.memcpy.p0.p0.i64(ptr align 8 %9, ptr align 8 @__const.fn_command_name_fl.buf_payload, i64 24, i1 false)
  %10 = load ptr, ptr %7, align 8, !tbaa !8
  call void (ptr, ptr, ...) @strbuf_addf(ptr noundef %9, ptr noundef @.str.14, ptr noundef %10)
  %11 = load ptr, ptr %8, align 8, !tbaa !8
  %12 = icmp ne ptr %11, null
  br i1 %12, label %13, label %20

13:                                               ; preds = %4
  %14 = load ptr, ptr %8, align 8, !tbaa !8
  %15 = load i8, ptr %14, align 1, !tbaa !11
  %16 = sext i8 %15 to i32
  %17 = icmp ne i32 %16, 0
  br i1 %17, label %18, label %20

18:                                               ; preds = %13
  %19 = load ptr, ptr %8, align 8, !tbaa !8
  call void (ptr, ptr, ...) @strbuf_addf(ptr noundef %9, ptr noundef @.str.15, ptr noundef %19)
  br label %20

20:                                               ; preds = %18, %13, %4
  %21 = load ptr, ptr %5, align 8, !tbaa !8
  %22 = load i32, ptr %6, align 4, !tbaa !4
  call void @normal_io_write_fl(ptr noundef %21, i32 noundef %22, ptr noundef %9)
  call void @strbuf_release(ptr noundef %9)
  call void @llvm.lifetime.end.p0(i64 24, ptr %9) #9
  ret void
}