; Function Attrs: nounwind uwtable
define internal void @fn_command_name_fl(ptr noundef %0, i32 noundef %1, ptr noundef %2, ptr noundef %3) #0 {
  %5 = alloca %struct.strbuf, align 8
  call void @llvm.lifetime.start.p0(i64 24, ptr nonnull %5) #7
  call void @llvm.memcpy.p0.p0.i64(ptr noundef nonnull align 8 dereferenceable(24) %5, ptr noundef nonnull align 8 dereferenceable(24) @__const.fn_counter.buf_payload, i64 24, i1 false)
  call void (ptr, ptr, ...) @strbuf_addf(ptr noundef nonnull %5, ptr noundef nonnull @.str.14, ptr noundef %2) #7
  %.not = icmp eq ptr %3, null
  br i1 %.not, label %9, label %6

6:                                                ; preds = %4
  %7 = load i8, ptr %3, align 1, !tbaa !4
  %.not5 = icmp eq i8 %7, 0
  br i1 %.not5, label %9, label %8

8:                                                ; preds = %6
  call void (ptr, ptr, ...) @strbuf_addf(ptr noundef nonnull %5, ptr noundef nonnull @.str.15, ptr noundef nonnull %3) #7
  br label %9

9:                                                ; preds = %8, %6, %4
  call fastcc void @normal_io_write_fl(ptr noundef %0, i32 noundef %1, ptr noundef %5)
  call void @strbuf_release(ptr noundef nonnull %5) #7
  call void @llvm.lifetime.end.p0(i64 24, ptr nonnull %5) #7
  ret void
}